(ifeaturesExtraction
featuresExtraction
p0
(dp1
S'historyAverage'
p2
(dp3
S'24'
p4
(dp5
S'aveGet'
p6
F105.23684210526316
sS'count'
p7
I38
sS'aveLost'
p8
F103.52631578947368
ssS'25'
p9
(dp10
g6
F105.92105263157893
sg7
I38
sg8
F111.94736842105263
ssS'22'
p11
(dp12
g6
F98.9230769230769
sg7
I39
sg8
F103.71794871794873
ssS'26'
p13
(dp14
g6
F98.33333333333333
sg7
I39
sg8
F95.0
ssS'27'
p15
(dp16
g6
F106.89743589743587
sg7
I39
sg8
F105.0
ssS'20'
p17
(dp18
g6
F99.3
sg7
I40
sg8
F98.6
ssS'21'
p19
(dp20
g6
F102.27027027027027
sg7
I37
sg8
F104.97297297297297
ssS'11'
p21
(dp22
g6
F114.64102564102564
sg7
I39
sg8
F106.97435897435898
ssS'10'
p23
(dp24
g6
F107.9
sg7
I40
sg8
F102.45
ssS'13'
p25
(dp26
g6
F102.29729729729729
sg7
I37
sg8
F102.75675675675676
ssS'12'
p27
(dp28
g6
F100.28205128205128
sg7
I39
sg8
F100.28205128205128
ssS'15'
p29
(dp30
g6
F105.94594594594595
sg7
I37
sg8
F97.51351351351352
ssS'14'
p31
(dp32
g6
F108.23076923076923
sg7
I39
sg8
F111.48717948717949
ssS'17'
p33
(dp34
g6
F108.0
sg7
I37
sg8
F111.1891891891892
ssS'16'
p35
(dp36
g6
F99.22857142857143
sg7
I35
sg8
F105.85714285714286
ssS'19'
p37
(dp38
g6
F117.52631578947368
sg7
I38
sg8
F105.6842105263158
ssS'18'
p39
(dp40
g6
F95.13157894736842
sg7
I38
sg8
F100.65789473684211
ssS'23'
p41
(dp42
g6
F110.25
sg7
I36
sg8
F103.55555555555556
ssS'28'
p43
(dp44
g6
F110.56756756756756
sg7
I37
sg8
F104.37837837837837
ssS'29'
p45
(dp46
g6
F105.34146341463415
sg7
I41
sg8
F109.7560975609756
ssS'1'
p47
(dp48
g6
F105.8157894736842
sg7
I38
sg8
F106.21052631578948
ssS'0'
p49
(dp50
g6
F101.55263157894737
sg7
I38
sg8
F101.39473684210526
ssS'3'
p51
(dp52
g6
F105.44444444444444
sg7
I36
sg8
F106.0
ssS'2'
p53
(dp54
g6
F105.36111111111111
sg7
I36
sg8
F114.02777777777777
ssS'5'
p55
(dp56
g6
F106.78378378378379
sg7
I37
sg8
F104.4054054054054
ssS'4'
p57
(dp58
g6
F98.12820512820512
sg7
I39
sg8
F102.33333333333333
ssS'7'
p59
(dp60
g6
F102.41025641025641
sg7
I39
sg8
F105.38461538461539
ssS'6'
p61
(dp62
g6
F105.47368421052632
sg7
I38
sg8
F108.86842105263158
ssS'9'
p63
(dp64
g6
F103.02631578947368
sg7
I38
sg8
F104.52631578947368
ssS'8'
p65
(dp66
g6
F104.97222222222223
sg7
I36
sg8
F102.91666666666667
sssS'dayLastFight'
p67
(dp68
S'24'
p69
cdatetime
date
p70
(S'\x07\xe1\x01\x08'
p71
tp72
Rp73
sS'25'
p74
g70
(S'\x07\xe1\x01\t'
p75
tp76
Rp77
sS'22'
p78
g70
(S'\x07\xe1\x01\t'
p79
tp80
Rp81
sS'26'
p82
g70
(S'\x07\xe1\x01\t'
p83
tp84
Rp85
sS'27'
p86
g70
(S'\x07\xe1\x01\n'
p87
tp88
Rp89
sS'20'
p90
g70
(S'\x07\xe1\x01\t'
p91
tp92
Rp93
sS'21'
p94
g70
(S'\x07\xe1\x01\t'
p95
tp96
Rp97
sS'11'
p98
g70
(S'\x07\xe1\x01\t'
p99
tp100
Rp101
sS'10'
p102
g70
(S'\x07\xe1\x01\t'
p103
tp104
Rp105
sS'13'
p106
g70
(S'\x07\xe1\x01\x08'
p107
tp108
Rp109
sS'12'
p110
g70
(S'\x07\xe1\x01\t'
p111
tp112
Rp113
sS'15'
p114
g70
(S'\x07\xe1\x01\x08'
p115
tp116
Rp117
sS'14'
p118
g70
(S'\x07\xe1\x01\t'
p119
tp120
Rp121
sS'17'
p122
g70
(S'\x07\xe1\x01\x08'
p123
tp124
Rp125
sS'16'
p126
g70
(S'\x07\xe1\x01\t'
p127
tp128
Rp129
sS'19'
p130
g70
(S'\x07\xe1\x01\t'
p131
tp132
Rp133
sS'18'
p134
g70
(S'\x07\xe1\x01\n'
p135
tp136
Rp137
sS'23'
p138
g70
(S'\x07\xe1\x01\t'
p139
tp140
Rp141
sS'28'
p142
g70
(S'\x07\xe1\x01\t'
p143
tp144
Rp145
sS'29'
p146
g70
(S'\x07\xe1\x01\t'
p147
tp148
Rp149
sg47
g70
(S'\x07\xe1\x01\x08'
p150
tp151
Rp152
sg49
g70
(S'\x07\xe1\x01\n'
p153
tp154
Rp155
sg51
g70
(S'\x07\xe1\x01\t'
p156
tp157
Rp158
sg53
g70
(S'\x07\xe1\x01\t'
p159
tp160
Rp161
sg55
g70
(S'\x07\xe1\x01\x08'
p162
tp163
Rp164
sg57
g70
(S'\x07\xe1\x01\t'
p165
tp166
Rp167
sg59
g70
(S'\x07\xe1\x01\n'
p168
tp169
Rp170
sg61
g70
(S'\x07\xe1\x01\n'
p171
tp172
Rp173
sg63
g70
(S'\x07\xe1\x01\n'
p174
tp175
Rp176
sg65
g70
(S'\x07\xe1\x01\t'
p177
tp178
Rp179
ssb.